; ModuleID = '37/1874.c'
source_filename = "37/1874.c"
target datalayout = "e-m:e-p270:32:32-p271:32:32-p272:64:64-i64:64-f80:128-n8:16:32:64-S128"
target triple = "x86_64-pc-linux-gnu"

@.str = private unnamed_addr constant [4 x i8] c"%d\0A\00", align 1
@.str.1 = private unnamed_addr constant [4 x i8] c"%c\0A\00", align 1
@.str.2 = private unnamed_addr constant [4 x i8] c"no\0A\00", align 1

; Function Attrs: noinline nounwind uwtable
define dso_local i32 @main() #0 {
  %1 = alloca i32, align 4
  %2 = alloca [100000 x i32], align 16
  %3 = alloca i32, align 4
  %4 = alloca i32, align 4
  %5 = alloca i32, align 4
  %6 = alloca i32, align 4
  %7 = alloca i32, align 4
  %8 = alloca i32, align 4
  %9 = alloca [100000 x i8], align 16
  store i32 0, i32* %1, align 4
  %10 = call i32 (i8*, ...) @__isoc99_scanf(i8* getelementptr inbounds ([4 x i8], [4 x i8]* @.str, i64 0, i64 0), i32* %6)
  store i32 0, i32* %8, align 4
  store i32 0, i32* %3, align 4
  br label %11

11:                                               ; preds = %113, %0
  %12 = load i32, i32* %3, align 4
  %13 = load i32, i32* %6, align 4
  %14 = icmp slt i32 %12, %13
  br i1 %14, label %15, label %116

15:                                               ; preds = %11
  store i32 0, i32* %8, align 4
  store i32 0, i32* %4, align 4
  br label %16

16:                                               ; preds = %26, %15
  %17 = load i32, i32* %4, align 4
  %18 = icmp slt i32 %17, 100000
  br i1 %18, label %19, label %29

19:                                               ; preds = %16
  %20 = load i32, i32* %4, align 4
  %21 = sext i32 %20 to i64
  %22 = getelementptr inbounds [100000 x i8], [100000 x i8]* %9, i64 0, i64 %21
  store i8 0, i8* %22, align 1
  %23 = load i32, i32* %4, align 4
  %24 = sext i32 %23 to i64
  %25 = getelementptr inbounds [100000 x i32], [100000 x i32]* %2, i64 0, i64 %24
  store i32 0, i32* %25, align 4
  br label %26

26:                                               ; preds = %19
  %27 = load i32, i32* %4, align 4
  %28 = add nsw i32 %27, 1
  store i32 %28, i32* %4, align 4
  br label %16

29:                                               ; preds = %16
  store i32 0, i32* %7, align 4
  %30 = getelementptr inbounds [100000 x i8], [100000 x i8]* %9, i64 0, i64 0
  %31 = call i32 (i8*, ...) bitcast (i32 (...)* @gets to i32 (i8*, ...)*)(i8* %30)
  store i32 0, i32* %4, align 4
  br label %32

32:                                               ; preds = %46, %29
  %33 = load i32, i32* %4, align 4
  %34 = icmp slt i32 %33, 100000
  br i1 %34, label %35, label %49

35:                                               ; preds = %32
  %36 = load i32, i32* %4, align 4
  %37 = sext i32 %36 to i64
  %38 = getelementptr inbounds [100000 x i8], [100000 x i8]* %9, i64 0, i64 %37
  %39 = load i8, i8* %38, align 1
  %40 = sext i8 %39 to i32
  %41 = icmp eq i32 %40, 0
  br i1 %41, label %42, label %43

42:                                               ; preds = %35
  br label %49

43:                                               ; preds = %35
  %44 = load i32, i32* %7, align 4
  %45 = add nsw i32 %44, 1
  store i32 %45, i32* %7, align 4
  br label %46

46:                                               ; preds = %43
  %47 = load i32, i32* %4, align 4
  %48 = add nsw i32 %47, 1
  store i32 %48, i32* %4, align 4
  br label %32

49:                                               ; preds = %42, %32
  store i32 0, i32* %4, align 4
  br label %50

50:                                               ; preds = %82, %49
  %51 = load i32, i32* %4, align 4
  %52 = load i32, i32* %7, align 4
  %53 = icmp slt i32 %51, %52
  br i1 %53, label %54, label %85

54:                                               ; preds = %50
  store i32 0, i32* %5, align 4
  br label %55

55:                                               ; preds = %78, %54
  %56 = load i32, i32* %5, align 4
  %57 = load i32, i32* %7, align 4
  %58 = icmp slt i32 %56, %57
  br i1 %58, label %59, label %81

59:                                               ; preds = %55
  %60 = load i32, i32* %5, align 4
  %61 = sext i32 %60 to i64
  %62 = getelementptr inbounds [100000 x i8], [100000 x i8]* %9, i64 0, i64 %61
  %63 = load i8, i8* %62, align 1
  %64 = sext i8 %63 to i32
  %65 = load i32, i32* %4, align 4
  %66 = sext i32 %65 to i64
  %67 = getelementptr inbounds [100000 x i8], [100000 x i8]* %9, i64 0, i64 %66
  %68 = load i8, i8* %67, align 1
  %69 = sext i8 %68 to i32
  %70 = icmp eq i32 %64, %69
  br i1 %70, label %71, label %77

71:                                               ; preds = %59
  %72 = load i32, i32* %4, align 4
  %73 = sext i32 %72 to i64
  %74 = getelementptr inbounds [100000 x i32], [100000 x i32]* %2, i64 0, i64 %73
  %75 = load i32, i32* %74, align 4
  %76 = add nsw i32 %75, 1
  store i32 %76, i32* %74, align 4
  br label %77

77:                                               ; preds = %71, %59
  br label %78

78:                                               ; preds = %77
  %79 = load i32, i32* %5, align 4
  %80 = add nsw i32 %79, 1
  store i32 %80, i32* %5, align 4
  br label %55

81:                                               ; preds = %55
  br label %82

82:                                               ; preds = %81
  %83 = load i32, i32* %4, align 4
  %84 = add nsw i32 %83, 1
  store i32 %84, i32* %4, align 4
  br label %50

85:                                               ; preds = %50
  store i32 0, i32* %4, align 4
  br label %86

86:                                               ; preds = %104, %85
  %87 = load i32, i32* %4, align 4
  %88 = load i32, i32* %7, align 4
  %89 = icmp slt i32 %87, %88
  br i1 %89, label %90, label %107

90:                                               ; preds = %86
  %91 = load i32, i32* %4, align 4
  %92 = sext i32 %91 to i64
  %93 = getelementptr inbounds [100000 x i32], [100000 x i32]* %2, i64 0, i64 %92
  %94 = load i32, i32* %93, align 4
  %95 = icmp eq i32 %94, 1
  br i1 %95, label %96, label %103

96:                                               ; preds = %90
  %97 = load i32, i32* %4, align 4
  %98 = sext i32 %97 to i64
  %99 = getelementptr inbounds [100000 x i8], [100000 x i8]* %9, i64 0, i64 %98
  %100 = load i8, i8* %99, align 1
  %101 = sext i8 %100 to i32
  %102 = call i32 (i8*, ...) @printf(i8* getelementptr inbounds ([4 x i8], [4 x i8]* @.str.1, i64 0, i64 0), i32 %101)
  store i32 1, i32* %8, align 4
  br label %107

103:                                              ; preds = %90
  br label %104

104:                                              ; preds = %103
  %105 = load i32, i32* %4, align 4
  %106 = add nsw i32 %105, 1
  store i32 %106, i32* %4, align 4
  br label %86

107:                                              ; preds = %96, %86
  %108 = load i32, i32* %8, align 4
  %109 = icmp eq i32 %108, 0
  br i1 %109, label %110, label %112

110:                                              ; preds = %107
  %111 = call i32 (i8*, ...) @printf(i8* getelementptr inbounds ([4 x i8], [4 x i8]* @.str.2, i64 0, i64 0))
  br label %112

112:                                              ; preds = %110, %107
  br label %113

113:                                              ; preds = %112
  %114 = load i32, i32* %3, align 4
  %115 = add nsw i32 %114, 1
  store i32 %115, i32* %3, align 4
  br label %11

116:                                              ; preds = %11
  %117 = load i32, i32* %1, align 4
  ret i32 %117
}

declare dso_local i32 @__isoc99_scanf(i8*, ...) #1

declare dso_local i32 @gets(...) #1

declare dso_local i32 @printf(i8*, ...) #1


!llvm.module.flags = !{!0}
!llvm.ident = !{!1}

!0 = !{i32 1, !"wchar_size", i32 4}
!1 = !{!"clang version 10.0.0-4ubuntu1 "}
